	.file	"builtin.c"
	.text
	.section	.rodata
.LC0:
	.string	"%s"
	.text
	.globl	_Z5printPc
	.type	_Z5printPc, @function
_Z5printPc:
.LFB14:
	.cfi_startproc
	pushq	%rbp
	.cfi_def_cfa_offset 16
	.cfi_offset 6, -16
	movq	%rsp, %rbp
	.cfi_def_cfa_register 6
	subq	$16, %rsp
	movq	%rdi, -8(%rbp)
	movq	-8(%rbp), %rax
	movq	%rax, %rsi
	leaq	.LC0(%rip), %rdi
	movl	$0, %eax
	call	printf@PLT
	nop
	leave
	.cfi_def_cfa 7, 8
	ret
	.cfi_endproc
.LFE14:
	.size	_Z5printPc, .-_Z5printPc
	.globl	_Z7printlnPc
	.type	_Z7printlnPc, @function
_Z7printlnPc:
.LFB15:
	.cfi_startproc
	pushq	%rbp
	.cfi_def_cfa_offset 16
	.cfi_offset 6, -16
	movq	%rsp, %rbp
	.cfi_def_cfa_register 6
	subq	$16, %rsp
	movq	%rdi, -8(%rbp)
	movq	-8(%rbp), %rax
	movq	%rax, %rdi
	call	puts@PLT
	nop
	leave
	.cfi_def_cfa 7, 8
	ret
	.cfi_endproc
.LFE15:
	.size	_Z7printlnPc, .-_Z7printlnPc
	.section	.rodata
.LC1:
	.string	"%d"
	.text
	.globl	_Z8printInti
	.type	_Z8printInti, @function
_Z8printInti:
.LFB16:
	.cfi_startproc
	pushq	%rbp
	.cfi_def_cfa_offset 16
	.cfi_offset 6, -16
	movq	%rsp, %rbp
	.cfi_def_cfa_register 6
	subq	$16, %rsp
	movl	%edi, -4(%rbp)
	movl	-4(%rbp), %eax
	movl	%eax, %esi
	leaq	.LC1(%rip), %rdi
	movl	$0, %eax
	call	printf@PLT
	nop
	leave
	.cfi_def_cfa 7, 8
	ret
	.cfi_endproc
.LFE16:
	.size	_Z8printInti, .-_Z8printInti
	.section	.rodata
.LC2:
	.string	"%d\n"
	.text
	.globl	_Z10printlnInti
	.type	_Z10printlnInti, @function
_Z10printlnInti:
.LFB17:
	.cfi_startproc
	pushq	%rbp
	.cfi_def_cfa_offset 16
	.cfi_offset 6, -16
	movq	%rsp, %rbp
	.cfi_def_cfa_register 6
	subq	$16, %rsp
	movl	%edi, -4(%rbp)
	movl	-4(%rbp), %eax
	movl	%eax, %esi
	leaq	.LC2(%rip), %rdi
	movl	$0, %eax
	call	printf@PLT
	nop
	leave
	.cfi_def_cfa 7, 8
	ret
	.cfi_endproc
.LFE17:
	.size	_Z10printlnInti, .-_Z10printlnInti
	.globl	_Z9getStringv
	.type	_Z9getStringv, @function
_Z9getStringv:
.LFB18:
	.cfi_startproc
	pushq	%rbp
	.cfi_def_cfa_offset 16
	.cfi_offset 6, -16
	movq	%rsp, %rbp
	.cfi_def_cfa_register 6
	subq	$16, %rsp
	movl	$1000, %edi
	call	malloc@PLT
	movq	%rax, -8(%rbp)
	movq	-8(%rbp), %rax
	movq	%rax, %rsi
	leaq	.LC0(%rip), %rdi
	movl	$0, %eax
	call	scanf@PLT
	movq	-8(%rbp), %rax
	leave
	.cfi_def_cfa 7, 8
	ret
	.cfi_endproc
.LFE18:
	.size	_Z9getStringv, .-_Z9getStringv
	.globl	_Z6getIntv
	.type	_Z6getIntv, @function
_Z6getIntv:
.LFB19:
	.cfi_startproc
	pushq	%rbp
	.cfi_def_cfa_offset 16
	.cfi_offset 6, -16
	movq	%rsp, %rbp
	.cfi_def_cfa_register 6
	subq	$16, %rsp
	movq	%fs:40, %rax
	movq	%rax, -8(%rbp)
	xorl	%eax, %eax
	leaq	-12(%rbp), %rax
	movq	%rax, %rsi
	leaq	.LC1(%rip), %rdi
	movl	$0, %eax
	call	scanf@PLT
	movl	-12(%rbp), %eax
	movq	-8(%rbp), %rdx
	xorq	%fs:40, %rdx
	je	.L9
	call	__stack_chk_fail@PLT
.L9:
	leave
	.cfi_def_cfa 7, 8
	ret
	.cfi_endproc
.LFE19:
	.size	_Z6getIntv, .-_Z6getIntv
	.globl	_Z8toStringi
	.type	_Z8toStringi, @function
_Z8toStringi:
.LFB20:
	.cfi_startproc
	pushq	%rbp
	.cfi_def_cfa_offset 16
	.cfi_offset 6, -16
	movq	%rsp, %rbp
	.cfi_def_cfa_register 6
	subq	$32, %rsp
	movl	%edi, -20(%rbp)
	movl	$12, %edi
	call	malloc@PLT
	movq	%rax, -8(%rbp)
	movl	-20(%rbp), %edx
	movq	-8(%rbp), %rax
	leaq	.LC1(%rip), %rsi
	movq	%rax, %rdi
	movl	$0, %eax
	call	sprintf@PLT
	movq	-8(%rbp), %rax
	leave
	.cfi_def_cfa 7, 8
	ret
	.cfi_endproc
.LFE20:
	.size	_Z8toStringi, .-_Z8toStringi
	.globl	_Z12__array_sizePc
	.type	_Z12__array_sizePc, @function
_Z12__array_sizePc:
.LFB21:
	.cfi_startproc
	pushq	%rbp
	.cfi_def_cfa_offset 16
	.cfi_offset 6, -16
	movq	%rsp, %rbp
	.cfi_def_cfa_register 6
	movq	%rdi, -8(%rbp)
	movq	-8(%rbp), %rax
	movl	-4(%rax), %eax
	popq	%rbp
	.cfi_def_cfa 7, 8
	ret
	.cfi_endproc
.LFE21:
	.size	_Z12__array_sizePc, .-_Z12__array_sizePc
	.globl	_Z15__string_lengthPc
	.type	_Z15__string_lengthPc, @function
_Z15__string_lengthPc:
.LFB22:
	.cfi_startproc
	pushq	%rbp
	.cfi_def_cfa_offset 16
	.cfi_offset 6, -16
	movq	%rsp, %rbp
	.cfi_def_cfa_register 6
	subq	$16, %rsp
	movq	%rdi, -8(%rbp)
	movq	-8(%rbp), %rax
	movq	%rax, %rdi
	call	strlen@PLT
	leave
	.cfi_def_cfa 7, 8
	ret
	.cfi_endproc
.LFE22:
	.size	_Z15__string_lengthPc, .-_Z15__string_lengthPc
	.globl	_Z18__string_substringPcii
	.type	_Z18__string_substringPcii, @function
_Z18__string_substringPcii:
.LFB23:
	.cfi_startproc
	pushq	%rbp
	.cfi_def_cfa_offset 16
	.cfi_offset 6, -16
	movq	%rsp, %rbp
	.cfi_def_cfa_register 6
	subq	$32, %rsp
	movq	%rdi, -24(%rbp)
	movl	%esi, -28(%rbp)
	movl	%edx, -32(%rbp)
	movl	-32(%rbp), %eax
	subl	-28(%rbp), %eax
	addl	$1, %eax
	cltq
	movq	%rax, %rdi
	call	malloc@PLT
	movq	%rax, -8(%rbp)
	movl	-28(%rbp), %eax
	movl	%eax, -12(%rbp)
.L18:
	movl	-12(%rbp), %eax
	cmpl	-32(%rbp), %eax
	jge	.L17
	movl	-12(%rbp), %eax
	movslq	%eax, %rdx
	movq	-24(%rbp), %rax
	leaq	(%rdx,%rax), %rcx
	movl	-12(%rbp), %eax
	subl	-28(%rbp), %eax
	movslq	%eax, %rdx
	movq	-8(%rbp), %rax
	addq	%rax, %rdx
	movzbl	(%rcx), %eax
	movb	%al, (%rdx)
	addl	$1, -12(%rbp)
	jmp	.L18
.L17:
	movl	-32(%rbp), %eax
	subl	-28(%rbp), %eax
	movslq	%eax, %rdx
	movq	-8(%rbp), %rax
	addq	%rdx, %rax
	movb	$0, (%rax)
	movq	-8(%rbp), %rax
	leave
	.cfi_def_cfa 7, 8
	ret
	.cfi_endproc
.LFE23:
	.size	_Z18__string_substringPcii, .-_Z18__string_substringPcii
	.globl	_Z17__string_parseIntPc
	.type	_Z17__string_parseIntPc, @function
_Z17__string_parseIntPc:
.LFB24:
	.cfi_startproc
	pushq	%rbp
	.cfi_def_cfa_offset 16
	.cfi_offset 6, -16
	movq	%rsp, %rbp
	.cfi_def_cfa_register 6
	subq	$32, %rsp
	movq	%rdi, -24(%rbp)
	movq	%fs:40, %rax
	movq	%rax, -8(%rbp)
	xorl	%eax, %eax
	leaq	-12(%rbp), %rdx
	movq	-24(%rbp), %rax
	leaq	.LC1(%rip), %rsi
	movq	%rax, %rdi
	movl	$0, %eax
	call	sscanf@PLT
	movl	-12(%rbp), %eax
	movq	-8(%rbp), %rcx
	xorq	%fs:40, %rcx
	je	.L22
	call	__stack_chk_fail@PLT
.L22:
	leave
	.cfi_def_cfa 7, 8
	ret
	.cfi_endproc
.LFE24:
	.size	_Z17__string_parseIntPc, .-_Z17__string_parseIntPc
	.globl	_Z12__string_ordPci
	.type	_Z12__string_ordPci, @function
_Z12__string_ordPci:
.LFB25:
	.cfi_startproc
	pushq	%rbp
	.cfi_def_cfa_offset 16
	.cfi_offset 6, -16
	movq	%rsp, %rbp
	.cfi_def_cfa_register 6
	movq	%rdi, -8(%rbp)
	movl	%esi, -12(%rbp)
	movl	-12(%rbp), %eax
	movslq	%eax, %rdx
	movq	-8(%rbp), %rax
	addq	%rdx, %rax
	movzbl	(%rax), %eax
	movsbl	%al, %eax
	popq	%rbp
	.cfi_def_cfa 7, 8
	ret
	.cfi_endproc
.LFE25:
	.size	_Z12__string_ordPci, .-_Z12__string_ordPci
	.globl	_Z12__string_addPcS_
	.type	_Z12__string_addPcS_, @function
_Z12__string_addPcS_:
.LFB26:
	.cfi_startproc
	pushq	%rbp
	.cfi_def_cfa_offset 16
	.cfi_offset 6, -16
	movq	%rsp, %rbp
	.cfi_def_cfa_register 6
	subq	$48, %rsp
	movq	%rdi, -40(%rbp)
	movq	%rsi, -48(%rbp)
	movq	-40(%rbp), %rax
	movq	%rax, %rdi
	call	strlen@PLT
	movl	%eax, -16(%rbp)
	movq	-48(%rbp), %rax
	movq	%rax, %rdi
	call	strlen@PLT
	movl	%eax, -12(%rbp)
	movl	-16(%rbp), %edx
	movl	-12(%rbp), %eax
	addl	%edx, %eax
	addl	$1, %eax
	cltq
	movq	%rax, %rdi
	call	malloc@PLT
	movq	%rax, -8(%rbp)
	movl	$0, -24(%rbp)
.L27:
	movl	-24(%rbp), %eax
	cmpl	-16(%rbp), %eax
	jge	.L26
	movl	-24(%rbp), %eax
	movslq	%eax, %rdx
	movq	-40(%rbp), %rax
	addq	%rdx, %rax
	movl	-24(%rbp), %edx
	movslq	%edx, %rcx
	movq	-8(%rbp), %rdx
	addq	%rcx, %rdx
	movzbl	(%rax), %eax
	movb	%al, (%rdx)
	addl	$1, -24(%rbp)
	jmp	.L27
.L26:
	movl	$0, -20(%rbp)
.L29:
	movl	-20(%rbp), %eax
	cmpl	-12(%rbp), %eax
	jge	.L28
	movl	-20(%rbp), %eax
	movslq	%eax, %rdx
	movq	-48(%rbp), %rax
	addq	%rdx, %rax
	movl	-16(%rbp), %ecx
	movl	-20(%rbp), %edx
	addl	%ecx, %edx
	movslq	%edx, %rcx
	movq	-8(%rbp), %rdx
	addq	%rcx, %rdx
	movzbl	(%rax), %eax
	movb	%al, (%rdx)
	addl	$1, -20(%rbp)
	jmp	.L29
.L28:
	movl	-16(%rbp), %edx
	movl	-12(%rbp), %eax
	addl	%edx, %eax
	movslq	%eax, %rdx
	movq	-8(%rbp), %rax
	addq	%rdx, %rax
	movb	$0, (%rax)
	movq	-8(%rbp), %rax
	leave
	.cfi_def_cfa 7, 8
	ret
	.cfi_endproc
.LFE26:
	.size	_Z12__string_addPcS_, .-_Z12__string_addPcS_
	.globl	_Z14__string_equalPcS_
	.type	_Z14__string_equalPcS_, @function
_Z14__string_equalPcS_:
.LFB27:
	.cfi_startproc
	pushq	%rbp
	.cfi_def_cfa_offset 16
	.cfi_offset 6, -16
	movq	%rsp, %rbp
	.cfi_def_cfa_register 6
	subq	$16, %rsp
	movq	%rdi, -8(%rbp)
	movq	%rsi, -16(%rbp)
	movq	-16(%rbp), %rdx
	movq	-8(%rbp), %rax
	movq	%rdx, %rsi
	movq	%rax, %rdi
	call	strcmp@PLT
	testl	%eax, %eax
	sete	%al
	movzbl	%al, %eax
	leave
	.cfi_def_cfa 7, 8
	ret
	.cfi_endproc
.LFE27:
	.size	_Z14__string_equalPcS_, .-_Z14__string_equalPcS_
	.globl	_Z18__string_not_equalPcS_
	.type	_Z18__string_not_equalPcS_, @function
_Z18__string_not_equalPcS_:
.LFB28:
	.cfi_startproc
	pushq	%rbp
	.cfi_def_cfa_offset 16
	.cfi_offset 6, -16
	movq	%rsp, %rbp
	.cfi_def_cfa_register 6
	subq	$16, %rsp
	movq	%rdi, -8(%rbp)
	movq	%rsi, -16(%rbp)
	movq	-16(%rbp), %rdx
	movq	-8(%rbp), %rax
	movq	%rdx, %rsi
	movq	%rax, %rdi
	call	strcmp@PLT
	leave
	.cfi_def_cfa 7, 8
	ret
	.cfi_endproc
.LFE28:
	.size	_Z18__string_not_equalPcS_, .-_Z18__string_not_equalPcS_
	.globl	_Z16__stirng_smallerPcS_
	.type	_Z16__stirng_smallerPcS_, @function
_Z16__stirng_smallerPcS_:
.LFB29:
	.cfi_startproc
	pushq	%rbp
	.cfi_def_cfa_offset 16
	.cfi_offset 6, -16
	movq	%rsp, %rbp
	.cfi_def_cfa_register 6
	subq	$16, %rsp
	movq	%rdi, -8(%rbp)
	movq	%rsi, -16(%rbp)
	movq	-16(%rbp), %rdx
	movq	-8(%rbp), %rax
	movq	%rdx, %rsi
	movq	%rax, %rdi
	call	strcmp@PLT
	shrl	$31, %eax
	movzbl	%al, %eax
	leave
	.cfi_def_cfa 7, 8
	ret
	.cfi_endproc
.LFE29:
	.size	_Z16__stirng_smallerPcS_, .-_Z16__stirng_smallerPcS_
	.globl	_Z15__string_biggerPcS_
	.type	_Z15__string_biggerPcS_, @function
_Z15__string_biggerPcS_:
.LFB30:
	.cfi_startproc
	pushq	%rbp
	.cfi_def_cfa_offset 16
	.cfi_offset 6, -16
	movq	%rsp, %rbp
	.cfi_def_cfa_register 6
	subq	$16, %rsp
	movq	%rdi, -8(%rbp)
	movq	%rsi, -16(%rbp)
	movq	-16(%rbp), %rdx
	movq	-8(%rbp), %rax
	movq	%rdx, %rsi
	movq	%rax, %rdi
	call	strcmp@PLT
	testl	%eax, %eax
	setg	%al
	movzbl	%al, %eax
	leave
	.cfi_def_cfa 7, 8
	ret
	.cfi_endproc
.LFE30:
	.size	_Z15__string_biggerPcS_, .-_Z15__string_biggerPcS_
	.globl	_Z22__string_smaller_equalPcS_
	.type	_Z22__string_smaller_equalPcS_, @function
_Z22__string_smaller_equalPcS_:
.LFB31:
	.cfi_startproc
	pushq	%rbp
	.cfi_def_cfa_offset 16
	.cfi_offset 6, -16
	movq	%rsp, %rbp
	.cfi_def_cfa_register 6
	subq	$16, %rsp
	movq	%rdi, -8(%rbp)
	movq	%rsi, -16(%rbp)
	movq	-16(%rbp), %rdx
	movq	-8(%rbp), %rax
	movq	%rdx, %rsi
	movq	%rax, %rdi
	call	strcmp@PLT
	testl	%eax, %eax
	setle	%al
	movzbl	%al, %eax
	leave
	.cfi_def_cfa 7, 8
	ret
	.cfi_endproc
.LFE31:
	.size	_Z22__string_smaller_equalPcS_, .-_Z22__string_smaller_equalPcS_
	.globl	_Z21__string_bigger_equalPcS_
	.type	_Z21__string_bigger_equalPcS_, @function
_Z21__string_bigger_equalPcS_:
.LFB32:
	.cfi_startproc
	pushq	%rbp
	.cfi_def_cfa_offset 16
	.cfi_offset 6, -16
	movq	%rsp, %rbp
	.cfi_def_cfa_register 6
	subq	$16, %rsp
	movq	%rdi, -8(%rbp)
	movq	%rsi, -16(%rbp)
	movq	-16(%rbp), %rdx
	movq	-8(%rbp), %rax
	movq	%rdx, %rsi
	movq	%rax, %rdi
	call	strcmp@PLT
	notl	%eax
	shrl	$31, %eax
	movzbl	%al, %eax
	leave
	.cfi_def_cfa 7, 8
	ret
	.cfi_endproc
.LFE32:
	.size	_Z21__string_bigger_equalPcS_, .-_Z21__string_bigger_equalPcS_
	.ident	"GCC: (Ubuntu 7.4.0-1ubuntu1~18.04.1) 7.4.0"
	.section	.note.GNU-stack,"",@progbits
